; Function Attrs: mustprogress uwtable
define internal fastcc void @"_ZZZ25test_submodule_gil_scopedRN8pybind117module_EENK4$_17clEjENKUlvE_clEv"(ptr nocapture noundef nonnull readonly align 8 dereferenceable(16) %0) unnamed_addr #1 align 2 personality ptr @__gxx_personality_v0 {
  %2 = alloca %"class.pybind11::gil_scoped_acquire", align 8
  %3 = alloca %"class.pybind11::module_", align 8
  %4 = alloca %"class.pybind11::detail::accessor", align 8
  %5 = alloca %"class.std::__cxx11::basic_string", align 8
  call void @_ZN8pybind1118gil_scoped_acquireC2Ev(ptr noundef nonnull align 8 dereferenceable(10) %2)
  call void @llvm.experimental.noalias.scope.decl(metadata !897)
  %6 = invoke ptr @PyImport_ImportModule(ptr noundef nonnull @.str.153)
          to label %.noexc unwind label %63

.noexc:                                           ; preds = %1
  %.not.i = icmp eq ptr %6, null
  br i1 %.not.i, label %7, label %12

7:                                                ; preds = %.noexc
  %8 = call ptr @__cxa_allocate_exception(i64 24) #23, !noalias !897
  invoke void @_ZN8pybind1117error_already_setC2Ev(ptr noundef nonnull align 8 dereferenceable(24) %8)
          to label %9 unwind label %10, !noalias !897

9:                                                ; preds = %7
  invoke void @__cxa_throw(ptr nonnull %8, ptr nonnull @_ZTIN8pybind1117error_already_setE, ptr nonnull @_ZN8pybind1117error_already_setD2Ev) #27
          to label %.noexc7 unwind label %63

.noexc7:                                          ; preds = %9
  unreachable

10:                                               ; preds = %7
  %11 = landingpad { ptr, i32 }
          cleanup
  call void @__cxa_free_exception(ptr %8) #23, !noalias !897
  br label %.body

12:                                               ; preds = %.noexc
  store ptr %6, ptr %3, align 8, !alias.scope !900
  %13 = getelementptr inbounds i8, ptr %4, i64 8
  store ptr %6, ptr %13, align 8, !alias.scope !903
  %14 = getelementptr inbounds i8, ptr %4, i64 16
  store ptr @.str.160, ptr %14, align 8, !alias.scope !903
  %15 = getelementptr inbounds i8, ptr %4, i64 24
  store ptr null, ptr %15, align 8, !alias.scope !903
  %16 = invoke noundef nonnull align 8 dereferenceable(8) ptr @_ZNK8pybind116detail8accessorINS0_17accessor_policies8str_attrEE9get_cacheEv(ptr noundef nonnull align 8 dereferenceable(32) %4)
          to label %17 unwind label %67

17:                                               ; preds = %12
  %18 = load ptr, ptr %16, align 8
  %19 = invoke ptr @PyLong_AsVoidPtr(ptr noundef %18)
          to label %20 unwind label %67

20:                                               ; preds = %17
  %21 = load ptr, ptr %15, align 8
  %.not.i.i.i.i = icmp eq ptr %21, null
  br i1 %.not.i.i.i.i, label %_ZN8pybind116detail8accessorINS0_17accessor_policies8str_attrEED2Ev.exit, label %22

22:                                               ; preds = %20
  %23 = load i64, ptr %21, align 8
  %24 = add nsw i64 %23, -1
  store i64 %24, ptr %21, align 8
  %.not.i.i.i.i.i = icmp eq i64 %24, 0
  br i1 %.not.i.i.i.i.i, label %25, label %_ZN8pybind116detail8accessorINS0_17accessor_policies8str_attrEED2Ev.exit

25:                                               ; preds = %22
  invoke void @_Py_Dealloc(ptr noundef nonnull %21)
          to label %_ZN8pybind116detail8accessorINS0_17accessor_policies8str_attrEED2Ev.exit unwind label %26

26:                                               ; preds = %25
  %27 = landingpad { ptr, i32 }
          catch ptr null
  %28 = extractvalue { ptr, i32 } %27, 0
  call void @__clang_call_terminate(ptr %28) #24
  unreachable

_ZN8pybind116detail8accessorINS0_17accessor_policies8str_attrEED2Ev.exit: ; preds = %20, %22, %25
  %29 = load i32, ptr %0, align 8
  %30 = lshr i32 %29, 3
  invoke void %19(ptr dead_on_unwind nonnull writable sret(%"class.std::__cxx11::basic_string") align 8 %5, i32 noundef %30)
          to label %31 unwind label %65

31:                                               ; preds = %_ZN8pybind116detail8accessorINS0_17accessor_policies8str_attrEED2Ev.exit
  %32 = getelementptr inbounds i8, ptr %0, i64 8
  %33 = load ptr, ptr %32, align 8
  %34 = invoke noundef zeroext i1 @_ZN8pybind113set3addIRNSt7__cxx1112basic_stringIcSt11char_traitsIcESaIcEEEEEbOT_(ptr noundef nonnull align 8 dereferenceable(8) %33, ptr noundef nonnull align 8 dereferenceable(32) %5)
          to label %35 unwind label %69

35:                                               ; preds = %31
  call void @_ZNSt7__cxx1112basic_stringIcSt11char_traitsIcESaIcEED1Ev(ptr noundef nonnull align 8 dereferenceable(32) %5) #23
  %36 = load i64, ptr %6, align 8
  %37 = add nsw i64 %36, -1
  store i64 %37, ptr %6, align 8
  %.not.i.i.i.i.i10 = icmp eq i64 %37, 0
  br i1 %.not.i.i.i.i.i10, label %38, label %_ZN8pybind117module_D2Ev.exit

38:                                               ; preds = %35
  invoke void @_Py_Dealloc(ptr noundef nonnull %6)
          to label %_ZN8pybind117module_D2Ev.exit unwind label %39

39:                                               ; preds = %38
  %40 = landingpad { ptr, i32 }
          catch ptr null
  %41 = extractvalue { ptr, i32 } %40, 0
  call void @__clang_call_terminate(ptr %41) #24
  unreachable

_ZN8pybind117module_D2Ev.exit:                    ; preds = %35, %38
  %42 = load ptr, ptr %2, align 8
  %43 = getelementptr inbounds i8, ptr %42, i64 160
  %44 = load i32, ptr %43, align 8
  %45 = add nsw i32 %44, -1
  store i32 %45, ptr %43, align 8
  %46 = icmp eq i32 %45, 0
  br i1 %46, label %47, label %_ZN8pybind1118gil_scoped_acquire7dec_refEv.exit.i

47:                                               ; preds = %_ZN8pybind117module_D2Ev.exit
  invoke void @PyThreadState_Clear(ptr noundef nonnull %42)
          to label %.noexc.i unwind label %60

.noexc.i:                                         ; preds = %47
  %48 = getelementptr inbounds i8, ptr %2, i64 9
  %49 = load i8, ptr %48, align 1
  %50 = and i8 %49, 1
  %.not.i.i = icmp eq i8 %50, 0
  br i1 %.not.i.i, label %.noexc1.i, label %51

51:                                               ; preds = %.noexc.i
  invoke void @PyThreadState_DeleteCurrent()
          to label %.noexc1.i unwind label %60

.noexc1.i:                                        ; preds = %51, %.noexc.i
  %52 = invoke noundef nonnull align 8 dereferenceable(472) ptr @_ZN8pybind116detail13get_internalsEv() #25
          to label %.noexc2.i unwind label %60

.noexc2.i:                                        ; preds = %.noexc1.i
  %53 = getelementptr inbounds i8, ptr %52, i64 456
  %54 = load ptr, ptr %53, align 8
  %55 = invoke i32 @PyThread_tss_set(ptr noundef %54, ptr noundef null)
          to label %_ZN8pybind1118gil_scoped_acquireD2Ev.exit unwind label %60

_ZN8pybind1118gil_scoped_acquire7dec_refEv.exit.i: ; preds = %_ZN8pybind117module_D2Ev.exit
  %.phi.trans.insert.i = getelementptr inbounds i8, ptr %2, i64 8
  %.pre.i = load i8, ptr %.phi.trans.insert.i, align 8
  %56 = and i8 %.pre.i, 1
  %57 = icmp eq i8 %56, 0
  br i1 %57, label %_ZN8pybind1118gil_scoped_acquireD2Ev.exit, label %58

58:                                               ; preds = %_ZN8pybind1118gil_scoped_acquire7dec_refEv.exit.i
  %59 = invoke ptr @PyEval_SaveThread()
          to label %_ZN8pybind1118gil_scoped_acquireD2Ev.exit unwind label %60

60:                                               ; preds = %58, %.noexc2.i, %.noexc1.i, %51, %47
  %61 = landingpad { ptr, i32 }
          catch ptr null
  %62 = extractvalue { ptr, i32 } %61, 0
  call void @__clang_call_terminate(ptr %62) #24
  unreachable

_ZN8pybind1118gil_scoped_acquireD2Ev.exit:        ; preds = %.noexc2.i, %_ZN8pybind1118gil_scoped_acquire7dec_refEv.exit.i, %58
  ret void

63:                                               ; preds = %9, %1
  %64 = landingpad { ptr, i32 }
          cleanup
  br label %.body

65:                                               ; preds = %_ZN8pybind116detail8accessorINS0_17accessor_policies8str_attrEED2Ev.exit
  %66 = landingpad { ptr, i32 }
          cleanup
  br label %71

67:                                               ; preds = %12, %17
  %68 = landingpad { ptr, i32 }
          cleanup
  call void @_ZN8pybind116detail8accessorINS0_17accessor_policies8str_attrEED2Ev(ptr noundef nonnull align 8 dereferenceable(32) %4) #23
  br label %71

69:                                               ; preds = %31
  %70 = landingpad { ptr, i32 }
          cleanup
  call void @_ZNSt7__cxx1112basic_stringIcSt11char_traitsIcESaIcEED1Ev(ptr noundef nonnull align 8 dereferenceable(32) %5) #23
  br label %71

71:                                               ; preds = %69, %67, %65
  %.pn = phi { ptr, i32 } [ %70, %69 ], [ %66, %65 ], [ %68, %67 ]
  call void @_ZN8pybind117module_D2Ev(ptr noundef nonnull align 8 dereferenceable(8) %3) #23
  br label %.body

.body:                                            ; preds = %63, %10, %71
  %.pn.pn = phi { ptr, i32 } [ %.pn, %71 ], [ %64, %63 ], [ %11, %10 ]
  call void @_ZN8pybind1118gil_scoped_acquireD2Ev(ptr noundef nonnull align 8 dereferenceable(10) %2) #23
  resume { ptr, i32 } %.pn.pn
}